target datalayout = "e-m:e-p270:32:32-p271:32:32-p272:64:64-i64:64-i128:128-f80:128-n8:16:32:64-S128"
target triple = "x86_64-unknown-linux-gnu"

%"class.snappy::SnappyDecompressor" = type <{ ptr, ptr, ptr, ptr, i32, i8, [5 x i8], [6 x i8] }>
%"class.snappy::SnappyIOVecWriter" = type { ptr, ptr, ptr, i64, i64, i64 }
%struct.iovec = type { ptr, i64 }

@_ZZN6snappyL18LeftShiftOverflowsEhjE5masks = internal constant [32 x i8] c"\00\00\00\00\00\00\00\00\00\00\00\00\00\00\00\00\00\00\00\00\00\00\00\00\00\80\C0\E0\F0\F8\FC\FE", align 16
@.str.1 = private unnamed_addr constant [18 x i8] c"snappy_uncompress\00", align 1

; Function Attrs: mustprogress nounwind uwtable
define linkonce_odr dso_local noundef zeroext i1 @_ZNK6snappy17SnappyIOVecWriter11CheckLengthEv(ptr noundef nonnull align 8 dereferenceable(48) %this) #0 comdat align 2 {
entry:
  %this.addr = alloca ptr, align 8
  store ptr %this, ptr %this.addr, align 8
  %this1 = load ptr, ptr %this.addr, align 8
  %total_written_ = getelementptr inbounds %"class.snappy::SnappyIOVecWriter", ptr %this1, i32 0, i32 4
  %0 = load i64, ptr %total_written_, align 8
  %output_limit_ = getelementptr inbounds %"class.snappy::SnappyIOVecWriter", ptr %this1, i32 0, i32 5
  %1 = load i64, ptr %output_limit_, align 8
  %cmp = icmp eq i64 %0, %1
  ret i1 %cmp
}

; Function Attrs: mustprogress nounwind uwtable
define linkonce_odr dso_local noundef zeroext i1 @_ZNK6snappy18SnappyDecompressor3eofEv(ptr noundef nonnull align 8 dereferenceable(42) %this) #0 comdat align 2 {
entry:
  %this.addr = alloca ptr, align 8
  store ptr %this, ptr %this.addr, align 8
  %this1 = load ptr, ptr %this.addr, align 8
  %eof_ = getelementptr inbounds %"class.snappy::SnappyDecompressor", ptr %this1, i32 0, i32 5
  %0 = load i8, ptr %eof_, align 4
  %tobool = trunc i8 %0 to i1
  ret i1 %tobool
}

; Function Attrs: mustprogress nounwind uwtable
define linkonce_odr dso_local void @_ZN6snappy17SnappyIOVecWriter5FlushEv(ptr noundef nonnull align 8 dereferenceable(48) %this) #0 comdat align 2 {
entry:
  %this.addr = alloca ptr, align 8
  store ptr %this, ptr %this.addr, align 8
  ret void
}

; Function Attrs: mustprogress nounwind uwtable
define linkonce_odr dso_local void @_ZN6snappy17SnappyIOVecWriter17SetExpectedLengthEm(ptr noundef nonnull align 8 dereferenceable(48) %this, i64 noundef %len) #0 comdat align 2 {
entry:
  %this.addr = alloca ptr, align 8
  %len.addr = alloca i64, align 8
  store ptr %this, ptr %this.addr, align 8
  store i64 %len, ptr %len.addr, align 8
  %this1 = load ptr, ptr %this.addr, align 8
  %0 = load i64, ptr %len.addr, align 8
  %output_limit_ = getelementptr inbounds %"class.snappy::SnappyIOVecWriter", ptr %this1, i32 0, i32 5
  store i64 %0, ptr %output_limit_, align 8
  ret void
}

; Function Attrs: mustprogress nounwind uwtable
define internal void @_ZN6snappyL6ReportEPKcmm(ptr noundef %algorithm, i64 noundef %compressed_size, i64 noundef %uncompressed_size) #0 {
entry:
  %algorithm.addr = alloca ptr, align 8
  %compressed_size.addr = alloca i64, align 8
  %uncompressed_size.addr = alloca i64, align 8
  store ptr %algorithm, ptr %algorithm.addr, align 8
  store i64 %compressed_size, ptr %compressed_size.addr, align 8
  store i64 %uncompressed_size, ptr %uncompressed_size.addr, align 8
  ret void
}

; Function Attrs: mustprogress nounwind uwtable
define internal noundef zeroext i1 @_ZN6snappyL18LeftShiftOverflowsEhj(i8 noundef zeroext %value, i32 noundef %shift) #0 {
entry:
  %value.addr = alloca i8, align 1
  %shift.addr = alloca i32, align 4
  store i8 %value, ptr %value.addr, align 1
  store i32 %shift, ptr %shift.addr, align 4
  %0 = load i8, ptr %value.addr, align 1
  %conv = zext i8 %0 to i32
  %1 = load i32, ptr %shift.addr, align 4
  %idxprom = zext i32 %1 to i64
  %arrayidx = getelementptr inbounds [32 x i8], ptr @_ZZN6snappyL18LeftShiftOverflowsEhjE5masks, i64 0, i64 %idxprom
  %2 = load i8, ptr %arrayidx, align 1
  %conv1 = zext i8 %2 to i32
  %and = and i32 %conv, %conv1
  %cmp = icmp ne i32 %and, 0
  ret i1 %cmp
}

; Function Attrs: mustprogress nounwind uwtable
define linkonce_odr dso_local void @_ZN6snappy18SnappyDecompressorD2Ev(ptr noundef nonnull align 8 dereferenceable(42) %this) unnamed_addr #0 comdat align 2 {
entry:
  %this.addr = alloca ptr, align 8
  store ptr %this, ptr %this.addr, align 8
  %this1 = load ptr, ptr %this.addr, align 8
  %reader_ = getelementptr inbounds %"class.snappy::SnappyDecompressor", ptr %this1, i32 0, i32 0
  %0 = load ptr, ptr %reader_, align 8
  %peeked_ = getelementptr inbounds %"class.snappy::SnappyDecompressor", ptr %this1, i32 0, i32 4
  %1 = load i32, ptr %peeked_, align 8
  %conv = zext i32 %1 to i64
  %vtable = load ptr, ptr %0, align 8
  %vfn = getelementptr inbounds ptr, ptr %vtable, i64 4
  %2 = load ptr, ptr %vfn, align 8
  call void %2(ptr noundef nonnull align 8 dereferenceable(8) %0, i64 noundef %conv)
  ret void
}

; Function Attrs: mustprogress nounwind uwtable
define internal noundef zeroext i1 @_ZN6snappyL25InternalUncompressAllTagsINS_17SnappyIOVecWriterEEEbPNS_18SnappyDecompressorEPT_jj(ptr noundef %decompressor, ptr noundef %writer, i32 noundef %compressed_len, i32 noundef %uncompressed_len) #0 {
entry:
  %decompressor.addr = alloca ptr, align 8
  %writer.addr = alloca ptr, align 8
  %compressed_len.addr = alloca i32, align 4
  %uncompressed_len.addr = alloca i32, align 4
  store ptr %decompressor, ptr %decompressor.addr, align 8
  store ptr %writer, ptr %writer.addr, align 8
  store i32 %compressed_len, ptr %compressed_len.addr, align 4
  store i32 %uncompressed_len, ptr %uncompressed_len.addr, align 4
  %0 = load i32, ptr %compressed_len.addr, align 4
  %conv = zext i32 %0 to i64
  %1 = load i32, ptr %uncompressed_len.addr, align 4
  %conv1 = zext i32 %1 to i64
  call void @_ZN6snappyL6ReportEPKcmm(ptr noundef @.str.1, i64 noundef %conv, i64 noundef %conv1)
  %2 = load ptr, ptr %writer.addr, align 8
  %3 = load i32, ptr %uncompressed_len.addr, align 4
  %conv2 = zext i32 %3 to i64
  call void @_ZN6snappy17SnappyIOVecWriter17SetExpectedLengthEm(ptr noundef nonnull align 8 dereferenceable(48) %2, i64 noundef %conv2)
  %4 = load ptr, ptr %decompressor.addr, align 8
  %5 = load ptr, ptr %writer.addr, align 8
  call void @_ZN6snappy18SnappyDecompressor17DecompressAllTagsINS_17SnappyIOVecWriterEEEvPT_(ptr noundef nonnull align 8 dereferenceable(42) %4, ptr noundef %5)
  %6 = load ptr, ptr %writer.addr, align 8
  call void @_ZN6snappy17SnappyIOVecWriter5FlushEv(ptr noundef nonnull align 8 dereferenceable(48) %6)
  %7 = load ptr, ptr %decompressor.addr, align 8
  %call = call noundef zeroext i1 @_ZNK6snappy18SnappyDecompressor3eofEv(ptr noundef nonnull align 8 dereferenceable(42) %7)
  br i1 %call, label %land.rhs, label %land.end

land.rhs:                                         ; preds = %entry
  %8 = load ptr, ptr %writer.addr, align 8
  %call3 = call noundef zeroext i1 @_ZNK6snappy17SnappyIOVecWriter11CheckLengthEv(ptr noundef nonnull align 8 dereferenceable(48) %8)
  br label %land.end

land.end:                                         ; preds = %land.rhs, %entry
  %9 = phi i1 [ false, %entry ], [ %call3, %land.rhs ]
  ret i1 %9
}

; Function Attrs: mustprogress nounwind uwtable
define linkonce_odr dso_local noundef zeroext i1 @_ZN6snappy18SnappyDecompressor22ReadUncompressedLengthEPj(ptr noundef nonnull align 8 dereferenceable(42) %this, ptr noundef %result) #0 comdat align 2 {
entry:
  %retval = alloca i1, align 1
  %this.addr = alloca ptr, align 8
  %result.addr = alloca ptr, align 8
  %shift = alloca i32, align 4
  %n = alloca i64, align 8
  %ip = alloca ptr, align 8
  %c = alloca i8, align 1
  %val = alloca i32, align 4
  store ptr %this, ptr %this.addr, align 8
  store ptr %result, ptr %result.addr, align 8
  %this1 = load ptr, ptr %this.addr, align 8
  %0 = load ptr, ptr %result.addr, align 8
  store i32 0, ptr %0, align 4
  store i32 0, ptr %shift, align 4
  br label %while.body

while.body:                                       ; preds = %if.end15, %entry
  %1 = load i32, ptr %shift, align 4
  %cmp = icmp uge i32 %1, 32
  br i1 %cmp, label %if.then, label %if.end

if.then:                                          ; preds = %while.body
  store i1 false, ptr %retval, align 1
  br label %return

if.end:                                           ; preds = %while.body
  %reader_ = getelementptr inbounds %"class.snappy::SnappyDecompressor", ptr %this1, i32 0, i32 0
  %2 = load ptr, ptr %reader_, align 8
  %vtable = load ptr, ptr %2, align 8
  %vfn = getelementptr inbounds ptr, ptr %vtable, i64 3
  %3 = load ptr, ptr %vfn, align 8
  %call = call noundef ptr %3(ptr noundef nonnull align 8 dereferenceable(8) %2, ptr noundef %n)
  store ptr %call, ptr %ip, align 8
  %4 = load i64, ptr %n, align 8
  %cmp2 = icmp eq i64 %4, 0
  br i1 %cmp2, label %if.then3, label %if.end4

if.then3:                                         ; preds = %if.end
  store i1 false, ptr %retval, align 1
  br label %return

if.end4:                                          ; preds = %if.end
  %5 = load ptr, ptr %ip, align 8
  %6 = load i8, ptr %5, align 1
  store i8 %6, ptr %c, align 1
  %reader_5 = getelementptr inbounds %"class.snappy::SnappyDecompressor", ptr %this1, i32 0, i32 0
  %7 = load ptr, ptr %reader_5, align 8
  %vtable6 = load ptr, ptr %7, align 8
  %vfn7 = getelementptr inbounds ptr, ptr %vtable6, i64 4
  %8 = load ptr, ptr %vfn7, align 8
  call void %8(ptr noundef nonnull align 8 dereferenceable(8) %7, i64 noundef 1)
  %9 = load i8, ptr %c, align 1
  %conv = zext i8 %9 to i32
  %and = and i32 %conv, 127
  store i32 %and, ptr %val, align 4
  %10 = load i32, ptr %val, align 4
  %conv8 = trunc i32 %10 to i8
  %11 = load i32, ptr %shift, align 4
  %call9 = call noundef zeroext i1 @_ZN6snappyL18LeftShiftOverflowsEhj(i8 noundef zeroext %conv8, i32 noundef %11)
  br i1 %call9, label %if.then10, label %if.end11

if.then10:                                        ; preds = %if.end4
  store i1 false, ptr %retval, align 1
  br label %return

if.end11:                                         ; preds = %if.end4
  %12 = load i32, ptr %val, align 4
  %13 = load i32, ptr %shift, align 4
  %shl = shl i32 %12, %13
  %14 = load ptr, ptr %result.addr, align 8
  %15 = load i32, ptr %14, align 4
  %or = or i32 %15, %shl
  store i32 %or, ptr %14, align 4
  %16 = load i8, ptr %c, align 1
  %conv12 = zext i8 %16 to i32
  %cmp13 = icmp slt i32 %conv12, 128
  br i1 %cmp13, label %if.then14, label %if.end15

if.then14:                                        ; preds = %if.end11
  br label %while.end

if.end15:                                         ; preds = %if.end11
  %17 = load i32, ptr %shift, align 4
  %add = add i32 %17, 7
  store i32 %add, ptr %shift, align 4
  br label %while.body, !llvm.loop !18

while.end:                                        ; preds = %if.then14
  store i1 true, ptr %retval, align 1
  br label %return

return:                                           ; preds = %while.end, %if.then10, %if.then3, %if.then
  %18 = load i1, ptr %retval, align 1
  ret i1 %18
}

; Function Attrs: mustprogress nounwind uwtable
define linkonce_odr dso_local void @_ZN6snappy18SnappyDecompressorC2EPNS_6SourceE(ptr noundef nonnull align 8 dereferenceable(42) %this, ptr noundef %reader) unnamed_addr #0 comdat align 2 {
entry:
  %this.addr = alloca ptr, align 8
  %reader.addr = alloca ptr, align 8
  store ptr %this, ptr %this.addr, align 8
  store ptr %reader, ptr %reader.addr, align 8
  %this1 = load ptr, ptr %this.addr, align 8
  %reader_ = getelementptr inbounds %"class.snappy::SnappyDecompressor", ptr %this1, i32 0, i32 0
  %0 = load ptr, ptr %reader.addr, align 8
  store ptr %0, ptr %reader_, align 8
  %ip_ = getelementptr inbounds %"class.snappy::SnappyDecompressor", ptr %this1, i32 0, i32 1
  store ptr null, ptr %ip_, align 8
  %ip_limit_ = getelementptr inbounds %"class.snappy::SnappyDecompressor", ptr %this1, i32 0, i32 2
  store ptr null, ptr %ip_limit_, align 8
  %peeked_ = getelementptr inbounds %"class.snappy::SnappyDecompressor", ptr %this1, i32 0, i32 4
  store i32 0, ptr %peeked_, align 8
  %eof_ = getelementptr inbounds %"class.snappy::SnappyDecompressor", ptr %this1, i32 0, i32 5
  store i8 0, ptr %eof_, align 4
  ret void
}

; Function Attrs: mustprogress nounwind uwtable
define internal noundef zeroext i1 @_ZN6snappyL18InternalUncompressINS_17SnappyIOVecWriterEEEbPNS_6SourceEPT_(ptr noundef %r, ptr noundef %writer) #0 {
entry:
  %retval = alloca i1, align 1
  %r.addr = alloca ptr, align 8
  %writer.addr = alloca ptr, align 8
  %decompressor = alloca %"class.snappy::SnappyDecompressor", align 8
  %uncompressed_len = alloca i32, align 4
  %cleanup.dest.slot = alloca i32, align 4
  store ptr %r, ptr %r.addr, align 8
  store ptr %writer, ptr %writer.addr, align 8
  %0 = load ptr, ptr %r.addr, align 8
  call void @_ZN6snappy18SnappyDecompressorC2EPNS_6SourceE(ptr noundef nonnull align 8 dereferenceable(42) %decompressor, ptr noundef %0)
  store i32 0, ptr %uncompressed_len, align 4
  %call = call noundef zeroext i1 @_ZN6snappy18SnappyDecompressor22ReadUncompressedLengthEPj(ptr noundef nonnull align 8 dereferenceable(42) %decompressor, ptr noundef %uncompressed_len)
  br i1 %call, label %if.end, label %if.then

if.then:                                          ; preds = %entry
  store i1 false, ptr %retval, align 1
  store i32 1, ptr %cleanup.dest.slot, align 4
  br label %cleanup

if.end:                                           ; preds = %entry
  %1 = load ptr, ptr %writer.addr, align 8
  %2 = load ptr, ptr %r.addr, align 8
  %vtable = load ptr, ptr %2, align 8
  %vfn = getelementptr inbounds ptr, ptr %vtable, i64 2
  %3 = load ptr, ptr %vfn, align 8
  %call1 = call noundef i64 %3(ptr noundef nonnull align 8 dereferenceable(8) %2)
  %conv = trunc i64 %call1 to i32
  %4 = load i32, ptr %uncompressed_len, align 4
  %call2 = call noundef zeroext i1 @_ZN6snappyL25InternalUncompressAllTagsINS_17SnappyIOVecWriterEEEbPNS_18SnappyDecompressorEPT_jj(ptr noundef %decompressor, ptr noundef %1, i32 noundef %conv, i32 noundef %4)
  store i1 %call2, ptr %retval, align 1
  store i32 1, ptr %cleanup.dest.slot, align 4
  br label %cleanup

cleanup:                                          ; preds = %if.end, %if.then
  call void @_ZN6snappy18SnappyDecompressorD2Ev(ptr noundef nonnull align 8 dereferenceable(42) %decompressor) #11
  %5 = load i1, ptr %retval, align 1
  ret i1 %5
}

; Function Attrs: mustprogress nounwind uwtable
define linkonce_odr dso_local void @_ZN6snappy17SnappyIOVecWriterC2EPK5iovecm(ptr noundef nonnull align 8 dereferenceable(48) %this, ptr noundef %iov, i64 noundef %iov_count) unnamed_addr #0 comdat align 2 {
entry:
  %this.addr = alloca ptr, align 8
  %iov.addr = alloca ptr, align 8
  %iov_count.addr = alloca i64, align 8
  store ptr %this, ptr %this.addr, align 8
  store ptr %iov, ptr %iov.addr, align 8
  store i64 %iov_count, ptr %iov_count.addr, align 8
  %this1 = load ptr, ptr %this.addr, align 8
  %output_iov_end_ = getelementptr inbounds %"class.snappy::SnappyIOVecWriter", ptr %this1, i32 0, i32 0
  %0 = load ptr, ptr %iov.addr, align 8
  %1 = load i64, ptr %iov_count.addr, align 8
  %add.ptr = getelementptr inbounds %struct.iovec, ptr %0, i64 %1
  store ptr %add.ptr, ptr %output_iov_end_, align 8
  %curr_iov_ = getelementptr inbounds %"class.snappy::SnappyIOVecWriter", ptr %this1, i32 0, i32 1
  %2 = load ptr, ptr %iov.addr, align 8
  store ptr %2, ptr %curr_iov_, align 8
  %curr_iov_output_ = getelementptr inbounds %"class.snappy::SnappyIOVecWriter", ptr %this1, i32 0, i32 2
  %3 = load i64, ptr %iov_count.addr, align 8
  %tobool = icmp ne i64 %3, 0
  br i1 %tobool, label %cond.true, label %cond.false

cond.true:                                        ; preds = %entry
  %4 = load ptr, ptr %iov.addr, align 8
  %iov_base = getelementptr inbounds %struct.iovec, ptr %4, i32 0, i32 0
  %5 = load ptr, ptr %iov_base, align 8
  br label %cond.end

cond.false:                                       ; preds = %entry
  br label %cond.end

cond.end:                                         ; preds = %cond.false, %cond.true
  %cond = phi ptr [ %5, %cond.true ], [ null, %cond.false ]
  store ptr %cond, ptr %curr_iov_output_, align 8
  %curr_iov_remaining_ = getelementptr inbounds %"class.snappy::SnappyIOVecWriter", ptr %this1, i32 0, i32 3
  %6 = load i64, ptr %iov_count.addr, align 8
  %tobool2 = icmp ne i64 %6, 0
  br i1 %tobool2, label %cond.true3, label %cond.false4

cond.true3:                                       ; preds = %cond.end
  %7 = load ptr, ptr %iov.addr, align 8
  %iov_len = getelementptr inbounds %struct.iovec, ptr %7, i32 0, i32 1
  %8 = load i64, ptr %iov_len, align 8
  br label %cond.end5

cond.false4:                                      ; preds = %cond.end
  br label %cond.end5

cond.end5:                                        ; preds = %cond.false4, %cond.true3
  %cond6 = phi i64 [ %8, %cond.true3 ], [ 0, %cond.false4 ]
  store i64 %cond6, ptr %curr_iov_remaining_, align 8
  %total_written_ = getelementptr inbounds %"class.snappy::SnappyIOVecWriter", ptr %this1, i32 0, i32 4
  store i64 0, ptr %total_written_, align 8
  %output_limit_ = getelementptr inbounds %"class.snappy::SnappyIOVecWriter", ptr %this1, i32 0, i32 5
  store i64 -1, ptr %output_limit_, align 8
  ret void
}

; Function Attrs: mustprogress nounwind uwtable
define dso_local noundef zeroext i1 @_ZN6snappy20RawUncompressToIOVecEPNS_6SourceEPK5iovecm(ptr noundef %compressed, ptr noundef %iov, i64 noundef %iov_cnt) #0 {
entry:
  %compressed.addr = alloca ptr, align 8
  %iov.addr = alloca ptr, align 8
  %iov_cnt.addr = alloca i64, align 8
  %output = alloca %"class.snappy::SnappyIOVecWriter", align 8
  store ptr %compressed, ptr %compressed.addr, align 8
  store ptr %iov, ptr %iov.addr, align 8
  store i64 %iov_cnt, ptr %iov_cnt.addr, align 8
  %0 = load ptr, ptr %iov.addr, align 8
  %1 = load i64, ptr %iov_cnt.addr, align 8
  call void @_ZN6snappy17SnappyIOVecWriterC2EPK5iovecm(ptr noundef nonnull align 8 dereferenceable(48) %output, ptr noundef %0, i64 noundef %1)
  %2 = load ptr, ptr %compressed.addr, align 8
  %call = call noundef zeroext i1 @_ZN6snappyL18InternalUncompressINS_17SnappyIOVecWriterEEEbPNS_6SourceEPT_(ptr noundef %2, ptr noundef %output)
  ret i1 %call
}