; Function Attrs: mustprogress nounwind uwtable
define dso_local noundef zeroext i1 @_ZN6snappy20RawUncompressToIOVecEPNS_6SourceEPK5iovecm(ptr noundef %compressed, ptr noundef %iov, i64 noundef %iov_cnt) local_unnamed_addr #2 {
entry:
  %n.i.i = alloca i64, align 8
  %decompressor.i = alloca %"class.snappy::SnappyDecompressor", align 8
  %output = alloca %"class.snappy::SnappyIOVecWriter", align 8
  %add.ptr.i = getelementptr inbounds %struct.iovec, ptr %iov, i64 %iov_cnt
  store ptr %add.ptr.i, ptr %output, align 8
  %curr_iov_.i = getelementptr inbounds i8, ptr %output, i64 8
  store ptr %iov, ptr %curr_iov_.i, align 8
  %curr_iov_output_.i = getelementptr inbounds i8, ptr %output, i64 16
  %tobool.not.i = icmp eq i64 %iov_cnt, 0
  br i1 %tobool.not.i, label %_ZN6snappy17SnappyIOVecWriterC2EPK5iovecm.exit, label %cond.true.i

cond.true.i:                                      ; preds = %entry
  %0 = load ptr, ptr %iov, align 8
  %iov_len.i = getelementptr inbounds i8, ptr %iov, i64 8
  %1 = load i64, ptr %iov_len.i, align 8
  br label %_ZN6snappy17SnappyIOVecWriterC2EPK5iovecm.exit

_ZN6snappy17SnappyIOVecWriterC2EPK5iovecm.exit:   ; preds = %entry, %cond.true.i
  %.sink = phi ptr [ %0, %cond.true.i ], [ null, %entry ]
  %cond6.i = phi i64 [ %1, %cond.true.i ], [ 0, %entry ]
  store ptr %.sink, ptr %curr_iov_output_.i, align 8
  %curr_iov_remaining_.i = getelementptr inbounds i8, ptr %output, i64 24
  store i64 %cond6.i, ptr %curr_iov_remaining_.i, align 8
  %total_written_.i = getelementptr inbounds i8, ptr %output, i64 32
  store i64 0, ptr %total_written_.i, align 8
  %output_limit_.i = getelementptr inbounds i8, ptr %output, i64 40
  store i64 -1, ptr %output_limit_.i, align 8
  call void @llvm.lifetime.start.p0(i64 48, ptr nonnull %decompressor.i)
  store ptr %compressed, ptr %decompressor.i, align 8
  %ip_.i.i = getelementptr inbounds i8, ptr %decompressor.i, i64 8
  %peeked_.i.i = getelementptr inbounds i8, ptr %decompressor.i, i64 32
  store i32 0, ptr %peeked_.i.i, align 8
  %eof_.i.i = getelementptr inbounds i8, ptr %decompressor.i, i64 36
  store i8 0, ptr %eof_.i.i, align 4
  call void @llvm.memset.p0.i64(ptr noundef nonnull align 8 dereferenceable(16) %ip_.i.i, i8 0, i64 16, i1 false)
  call void @llvm.lifetime.start.p0(i64 8, ptr nonnull %n.i.i)
  br label %if.end.i.i

while.body.i.i:                                   ; preds = %if.end11.i.i
  %indvars.iv.next.i.i = add nuw nsw i64 %indvars.iv.i.i, 7
  %cmp.i.i = icmp ugt i64 %indvars.iv.i.i, 24
  br i1 %cmp.i.i, label %_ZN6snappy18SnappyDecompressor22ReadUncompressedLengthEPj.exit.thread.i, label %if.end.i.i, !llvm.loop !20

if.end.i.i:                                       ; preds = %while.body.i.i, %_ZN6snappy17SnappyIOVecWriterC2EPK5iovecm.exit
  %uncompressed_len.0.i = phi i32 [ 0, %_ZN6snappy17SnappyIOVecWriterC2EPK5iovecm.exit ], [ %or.i.i, %while.body.i.i ]
  %indvars.iv.i.i = phi i64 [ 0, %_ZN6snappy17SnappyIOVecWriterC2EPK5iovecm.exit ], [ %indvars.iv.next.i.i, %while.body.i.i ]
  %vtable.i.i = load ptr, ptr %compressed, align 8
  %vfn.i.i = getelementptr inbounds i8, ptr %vtable.i.i, i64 24
  %2 = load ptr, ptr %vfn.i.i, align 8
  %call.i.i = call noundef ptr %2(ptr noundef nonnull align 8 dereferenceable(8) %compressed, ptr noundef nonnull %n.i.i) #19
  %3 = load i64, ptr %n.i.i, align 8
  %cmp2.i.i = icmp eq i64 %3, 0
  br i1 %cmp2.i.i, label %_ZN6snappy18SnappyDecompressor22ReadUncompressedLengthEPj.exit.thread.i, label %if.end4.i.i

if.end4.i.i:                                      ; preds = %if.end.i.i
  %4 = load i8, ptr %call.i.i, align 1
  %vtable6.i.i = load ptr, ptr %compressed, align 8
  %vfn7.i.i = getelementptr inbounds i8, ptr %vtable6.i.i, i64 32
  %5 = load ptr, ptr %vfn7.i.i, align 8
  call void %5(ptr noundef nonnull align 8 dereferenceable(8) %compressed, i64 noundef 1) #19
  %6 = and i8 %4, 127
  %arrayidx.i.i.i = getelementptr inbounds [32 x i8], ptr @_ZZN6snappyL18LeftShiftOverflowsEhjE5masks, i64 0, i64 %indvars.iv.i.i
  %7 = load i8, ptr %arrayidx.i.i.i, align 1
  %and1.i.i.i = and i8 %7, %6
  %cmp.i.not.i.i = icmp eq i8 %and1.i.i.i, 0
  br i1 %cmp.i.not.i.i, label %if.end11.i.i, label %_ZN6snappy18SnappyDecompressor22ReadUncompressedLengthEPj.exit.thread.i

if.end11.i.i:                                     ; preds = %if.end4.i.i
  %and.i.i = zext nneg i8 %6 to i32
  %8 = trunc i64 %indvars.iv.i.i to i32
  %shl.i.i = shl i32 %and.i.i, %8
  %or.i.i = or i32 %shl.i.i, %uncompressed_len.0.i
  %cmp13.i.i = icmp sgt i8 %4, -1
  br i1 %cmp13.i.i, label %if.end.i, label %while.body.i.i

_ZN6snappy18SnappyDecompressor22ReadUncompressedLengthEPj.exit.thread.i: ; preds = %if.end4.i.i, %if.end.i.i, %while.body.i.i
  call void @llvm.lifetime.end.p0(i64 8, ptr nonnull %n.i.i)
  br label %_ZN6snappyL18InternalUncompressINS_17SnappyIOVecWriterEEEbPNS_6SourceEPT_.exit

if.end.i:                                         ; preds = %if.end11.i.i
  call void @llvm.lifetime.end.p0(i64 8, ptr nonnull %n.i.i)
  %vtable.i = load ptr, ptr %compressed, align 8
  %vfn.i = getelementptr inbounds i8, ptr %vtable.i, i64 16
  %9 = load ptr, ptr %vfn.i, align 8
  %call1.i = call noundef i64 %9(ptr noundef nonnull align 8 dereferenceable(8) %compressed) #19
  %conv1.i.i = zext i32 %or.i.i to i64
  store i64 %conv1.i.i, ptr %output_limit_.i, align 8
  call void @_ZN6snappy18SnappyDecompressor17DecompressAllTagsINS_17SnappyIOVecWriterEEEvPT_(ptr noundef nonnull align 8 dereferenceable(42) %decompressor.i, ptr noundef nonnull %output)
  %10 = load i8, ptr %eof_.i.i, align 4
  %11 = and i8 %10, 1
  %tobool.i.not.i.i = icmp eq i8 %11, 0
  br i1 %tobool.i.not.i.i, label %_ZN6snappyL18InternalUncompressINS_17SnappyIOVecWriterEEEbPNS_6SourceEPT_.exit, label %land.rhs.i.i

land.rhs.i.i:                                     ; preds = %if.end.i
  %12 = load i64, ptr %total_written_.i, align 8
  %13 = load i64, ptr %output_limit_.i, align 8
  %cmp.i.i.i = icmp eq i64 %12, %13
  br label %_ZN6snappyL18InternalUncompressINS_17SnappyIOVecWriterEEEbPNS_6SourceEPT_.exit

_ZN6snappyL18InternalUncompressINS_17SnappyIOVecWriterEEEbPNS_6SourceEPT_.exit: ; preds = %_ZN6snappy18SnappyDecompressor22ReadUncompressedLengthEPj.exit.thread.i, %if.end.i, %land.rhs.i.i
  %retval.0.i = phi i1 [ false, %_ZN6snappy18SnappyDecompressor22ReadUncompressedLengthEPj.exit.thread.i ], [ false, %if.end.i ], [ %cmp.i.i.i, %land.rhs.i.i ]
  %14 = load ptr, ptr %decompressor.i, align 8
  %15 = load i32, ptr %peeked_.i.i, align 8
  %conv.i.i = zext i32 %15 to i64
  %vtable.i3.i = load ptr, ptr %14, align 8
  %vfn.i4.i = getelementptr inbounds i8, ptr %vtable.i3.i, i64 32
  %16 = load ptr, ptr %vfn.i4.i, align 8
  call void %16(ptr noundef nonnull align 8 dereferenceable(8) %14, i64 noundef %conv.i.i) #19
  call void @llvm.lifetime.end.p0(i64 48, ptr nonnull %decompressor.i)
  ret i1 %retval.0.i
}